; Function Attrs: mustprogress nofree norecurse nosync nounwind willreturn memory(argmem: read) uwtable
define { ptr, i64 } @_ZN9grpc_core7GsecKey10kdf_bufferEv(ptr nocapture noundef nonnull readonly align 8 dereferenceable(136) %this) unnamed_addr #2 align 2 {
entry:
  %kdf_buffer_ = getelementptr inbounds i8, ptr %this, i64 64
  %0 = load ptr, ptr %kdf_buffer_, align 8
  %_M_finish.i.i = getelementptr inbounds i8, ptr %this, i64 72
  %1 = load ptr, ptr %_M_finish.i.i, align 8
  %sub.ptr.lhs.cast.i.i = ptrtoint ptr %1 to i64
  %sub.ptr.rhs.cast.i.i = ptrtoint ptr %0 to i64
  %sub.ptr.sub.i.i = sub i64 %sub.ptr.lhs.cast.i.i, %sub.ptr.rhs.cast.i.i
  %.fca.0.insert.i.i = insertvalue { ptr, i64 } poison, ptr %0, 0
  %.fca.1.insert.i.i = insertvalue { ptr, i64 } %.fca.0.insert.i.i, i64 %sub.ptr.sub.i.i, 1
  ret { ptr, i64 } %.fca.1.insert.i.i
}